; Function Attrs: nounwind uwtable
define internal fastcc void @IDAFreeVectors(ptr noundef nonnull captures(none) %0) unnamed_addr #0 {
  %2 = getelementptr inbounds nuw i8, ptr %0, i64 632
  %3 = load ptr, ptr %2, align 8, !tbaa !90
  tail call void @N_VDestroy(ptr noundef %3) #14
  store ptr null, ptr %2, align 8, !tbaa !90
  %4 = getelementptr inbounds nuw i8, ptr %0, i64 704
  %5 = load ptr, ptr %4, align 8, !tbaa !114
  tail call void @N_VDestroy(ptr noundef %5) #14
  store ptr null, ptr %4, align 8, !tbaa !114
  %6 = getelementptr inbounds nuw i8, ptr %0, i64 672
  %7 = load ptr, ptr %6, align 8, !tbaa !115
  tail call void @N_VDestroy(ptr noundef %7) #14
  store ptr null, ptr %6, align 8, !tbaa !115
  %8 = getelementptr inbounds nuw i8, ptr %0, i64 656
  %9 = load ptr, ptr %8, align 8, !tbaa !116
  tail call void @N_VDestroy(ptr noundef %9) #14
  store ptr null, ptr %8, align 8, !tbaa !116
  %10 = getelementptr inbounds nuw i8, ptr %0, i64 664
  %11 = load ptr, ptr %10, align 8, !tbaa !117
  tail call void @N_VDestroy(ptr noundef %11) #14
  store ptr null, ptr %10, align 8, !tbaa !117
  %12 = getelementptr inbounds nuw i8, ptr %0, i64 696
  %13 = load ptr, ptr %12, align 8, !tbaa !118
  tail call void @N_VDestroy(ptr noundef %13) #14
  store ptr null, ptr %12, align 8, !tbaa !118
  %14 = getelementptr inbounds nuw i8, ptr %0, i64 712
  %15 = load ptr, ptr %14, align 8, !tbaa !119
  tail call void @N_VDestroy(ptr noundef %15) #14
  store ptr null, ptr %14, align 8, !tbaa !119
  %16 = getelementptr inbounds nuw i8, ptr %0, i64 720
  %17 = load ptr, ptr %16, align 8, !tbaa !120
  tail call void @N_VDestroy(ptr noundef %17) #14
  store ptr null, ptr %16, align 8, !tbaa !120
  %18 = getelementptr inbounds nuw i8, ptr %0, i64 728
  %19 = load ptr, ptr %18, align 8, !tbaa !121
  tail call void @N_VDestroy(ptr noundef %19) #14
  store ptr null, ptr %18, align 8, !tbaa !121
  %20 = getelementptr inbounds nuw i8, ptr %0, i64 1380
  %21 = load i32, ptr %20, align 4, !tbaa !33
  %spec.select = tail call i32 @llvm.smax.i32(i32 %21, i32 3)
  %22 = getelementptr inbounds nuw i8, ptr %0, i64 344
  %23 = add nuw i32 %spec.select, 1
  %wide.trip.count = zext i32 %23 to i64
  br label %24

24:                                               ; preds = %1, %24
  %indvars.iv = phi i64 [ 0, %1 ], [ %indvars.iv.next, %24 ]
  %25 = getelementptr inbounds nuw [6 x ptr], ptr %22, i64 0, i64 %indvars.iv
  %26 = load ptr, ptr %25, align 8, !tbaa !83
  tail call void @N_VDestroy(ptr noundef %26) #14
  store ptr null, ptr %25, align 8, !tbaa !83
  %indvars.iv.next = add nuw nsw i64 %indvars.iv, 1
  %exitcond.not = icmp eq i64 %indvars.iv.next, %wide.trip.count
  br i1 %exitcond.not, label %27, label %24

27:                                               ; preds = %24
  %28 = add nuw nsw i32 %spec.select, 10
  %29 = zext nneg i32 %28 to i64
  %30 = getelementptr inbounds nuw i8, ptr %0, i64 1624
  %31 = load i64, ptr %30, align 8, !tbaa !112
  %32 = mul nsw i64 %31, %29
  %33 = getelementptr inbounds nuw i8, ptr %0, i64 1656
  %34 = load i64, ptr %33, align 8, !tbaa !64
  %35 = sub nsw i64 %34, %32
  store i64 %35, ptr %33, align 8, !tbaa !64
  %36 = getelementptr inbounds nuw i8, ptr %0, i64 1632
  %37 = load i64, ptr %36, align 8, !tbaa !113
  %38 = mul nsw i64 %37, %29
  %39 = getelementptr inbounds nuw i8, ptr %0, i64 1664
  %40 = load i64, ptr %39, align 8, !tbaa !65
  %41 = sub nsw i64 %40, %38
  store i64 %41, ptr %39, align 8, !tbaa !65
  %42 = getelementptr inbounds nuw i8, ptr %0, i64 1684
  %43 = load i32, ptr %42, align 4, !tbaa !141
  %.not55 = icmp eq i32 %43, 0
  br i1 %.not55, label %53, label %44

44:                                               ; preds = %27
  %45 = getelementptr inbounds nuw i8, ptr %0, i64 56
  %46 = load ptr, ptr %45, align 8, !tbaa !142
  tail call void @N_VDestroy(ptr noundef %46) #14
  store ptr null, ptr %45, align 8, !tbaa !142
  %47 = load i64, ptr %30, align 8, !tbaa !112
  %48 = load i64, ptr %33, align 8, !tbaa !64
  %49 = sub nsw i64 %48, %47
  store i64 %49, ptr %33, align 8, !tbaa !64
  %50 = load i64, ptr %36, align 8, !tbaa !113
  %51 = load i64, ptr %39, align 8, !tbaa !65
  %52 = sub nsw i64 %51, %50
  store i64 %52, ptr %39, align 8, !tbaa !65
  br label %53

53:                                               ; preds = %44, %27
  %54 = getelementptr inbounds nuw i8, ptr %0, i64 1688
  %55 = load i32, ptr %54, align 8, !tbaa !143
  %.not56 = icmp eq i32 %55, 0
  br i1 %.not56, label %65, label %56

56:                                               ; preds = %53
  %57 = getelementptr inbounds nuw i8, ptr %0, i64 688
  %58 = load ptr, ptr %57, align 8, !tbaa !144
  tail call void @N_VDestroy(ptr noundef %58) #14
  store ptr null, ptr %57, align 8, !tbaa !144
  %59 = load i64, ptr %30, align 8, !tbaa !112
  %60 = load i64, ptr %33, align 8, !tbaa !64
  %61 = sub nsw i64 %60, %59
  store i64 %61, ptr %33, align 8, !tbaa !64
  %62 = load i64, ptr %36, align 8, !tbaa !113
  %63 = load i64, ptr %39, align 8, !tbaa !65
  %64 = sub nsw i64 %63, %62
  store i64 %64, ptr %39, align 8, !tbaa !65
  br label %65

65:                                               ; preds = %56, %53
  %66 = getelementptr inbounds nuw i8, ptr %0, i64 1692
  %67 = load i32, ptr %66, align 4, !tbaa !145
  %.not57 = icmp eq i32 %67, 0
  br i1 %.not57, label %77, label %68

68:                                               ; preds = %65
  %69 = getelementptr inbounds nuw i8, ptr %0, i64 680
  %70 = load ptr, ptr %69, align 8, !tbaa !146
  tail call void @N_VDestroy(ptr noundef %70) #14
  store ptr null, ptr %69, align 8, !tbaa !146
  %71 = load i64, ptr %30, align 8, !tbaa !112
  %72 = load i64, ptr %33, align 8, !tbaa !64
  %73 = sub nsw i64 %72, %71
  store i64 %73, ptr %33, align 8, !tbaa !64
  %74 = load i64, ptr %36, align 8, !tbaa !113
  %75 = load i64, ptr %39, align 8, !tbaa !65
  %76 = sub nsw i64 %75, %74
  store i64 %76, ptr %39, align 8, !tbaa !65
  br label %77

77:                                               ; preds = %68, %65
  ret void
}